target datalayout = "e-m:e-p270:32:32-p271:32:32-p272:64:64-i64:64-i128:128-f80:128-n8:16:32:64-S128"
target triple = "x86_64-pc-linux-gnu"

%struct._stat_tap_table = type { ptr, ptr, i32, i32, ptr }

; Function Attrs: alwaysinline nounwind
define internal ptr @memcpy.inline(ptr noalias %0, ptr noalias %1, i64 %2) #6 {
  %4 = alloca ptr, align 8
  %5 = alloca ptr, align 8
  %6 = alloca i64, align 8
  store ptr %0, ptr %4, align 8
  store ptr %1, ptr %5, align 8
  store i64 %2, ptr %6, align 8
  %7 = load ptr, ptr %4, align 8
  %8 = load ptr, ptr %5, align 8
  %9 = load i64, ptr %6, align 8
  %10 = load ptr, ptr %4, align 8
  %11 = call i64 @llvm.objectsize.i64.p0(ptr %10, i1 false, i1 true, i1 true)
  %12 = call ptr @__memcpy_chk(ptr noundef %7, ptr noundef %8, i64 noundef %9, i64 noundef %11) #13
  ret ptr %12
}

; Function Attrs: null_pointer_is_valid sspstrong uwtable
define void @stat_tap_init_table_row(ptr noundef %0, i32 noundef %1, i32 noundef %2, ptr noundef %3) #0 {
  %5 = alloca ptr, align 8
  %6 = alloca i32, align 4
  %7 = alloca i32, align 4
  %8 = alloca ptr, align 8
  %9 = alloca i32, align 4
  %10 = alloca i32, align 4
  %11 = alloca i64, align 8
  %12 = alloca i64, align 8
  %13 = alloca ptr, align 8
  %14 = alloca ptr, align 8
  store ptr %0, ptr %5, align 8
  store i32 %1, ptr %6, align 4
  store i32 %2, ptr %7, align 4
  store ptr %3, ptr %8, align 8
  %15 = load i32, ptr %6, align 4
  %16 = load ptr, ptr %5, align 8
  %17 = getelementptr inbounds nuw %struct._stat_tap_table, ptr %16, i32 0, i32 3
  %18 = load i32, ptr %17, align 4
  %19 = icmp uge i32 %15, %18
  br i1 %19, label %20, label %90

20:                                               ; preds = %4
  call void @llvm.lifetime.start.p0(i64 4, ptr %9) #13
  %21 = load ptr, ptr %5, align 8
  %22 = getelementptr inbounds nuw %struct._stat_tap_table, ptr %21, i32 0, i32 3
  %23 = load i32, ptr %22, align 4
  store i32 %23, ptr %9, align 4
  call void @llvm.lifetime.start.p0(i64 4, ptr %10) #13
  %24 = load i32, ptr %6, align 4
  %25 = add i32 %24, 1
  %26 = load ptr, ptr %5, align 8
  %27 = getelementptr inbounds nuw %struct._stat_tap_table, ptr %26, i32 0, i32 3
  store i32 %25, ptr %27, align 4
  %28 = load ptr, ptr %5, align 8
  %29 = getelementptr inbounds nuw %struct._stat_tap_table, ptr %28, i32 0, i32 4
  %30 = load ptr, ptr %29, align 8
  %31 = load ptr, ptr %5, align 8
  %32 = getelementptr inbounds nuw %struct._stat_tap_table, ptr %31, i32 0, i32 3
  %33 = load i32, ptr %32, align 4
  %34 = zext i32 %33 to i64
  %35 = mul i64 8, %34
  %36 = call ptr @g_realloc(ptr noundef %30, i64 noundef %35)
  %37 = load ptr, ptr %5, align 8
  %38 = getelementptr inbounds nuw %struct._stat_tap_table, ptr %37, i32 0, i32 4
  store ptr %36, ptr %38, align 8
  %39 = load i32, ptr %9, align 4
  store i32 %39, ptr %10, align 4
  br label %40

40:                                               ; preds = %86, %20
  %41 = load i32, ptr %10, align 4
  %42 = load ptr, ptr %5, align 8
  %43 = getelementptr inbounds nuw %struct._stat_tap_table, ptr %42, i32 0, i32 3
  %44 = load i32, ptr %43, align 4
  %45 = icmp ult i32 %41, %44
  br i1 %45, label %46, label %89

46:                                               ; preds = %40
  call void @llvm.lifetime.start.p0(i64 8, ptr %11) #13
  %47 = load ptr, ptr %5, align 8
  %48 = getelementptr inbounds nuw %struct._stat_tap_table, ptr %47, i32 0, i32 2
  %49 = load i32, ptr %48, align 8
  %50 = zext i32 %49 to i64
  store i64 %50, ptr %11, align 8
  call void @llvm.lifetime.start.p0(i64 8, ptr %12) #13
  store i64 24, ptr %12, align 8
  call void @llvm.lifetime.start.p0(i64 8, ptr %13) #13
  %51 = load i64, ptr %12, align 8
  %52 = icmp eq i64 %51, 1
  br i1 %52, label %53, label %56

53:                                               ; preds = %46
  %54 = load i64, ptr %11, align 8
  %55 = call noalias ptr @g_malloc0(i64 noundef %54) #16
  store ptr %55, ptr %13, align 8
  br label %77

56:                                               ; preds = %46
  %57 = load i64, ptr %11, align 8
  %58 = call i1 @llvm.is.constant.i64(i64 %57)
  br i1 %58, label %59, label %72

59:                                               ; preds = %56
  %60 = load i64, ptr %12, align 8
  %61 = icmp eq i64 %60, 0
  br i1 %61, label %67, label %62

62:                                               ; preds = %59
  %63 = load i64, ptr %11, align 8
  %64 = load i64, ptr %12, align 8
  %65 = udiv i64 -1, %64
  %66 = icmp ule i64 %63, %65
  br i1 %66, label %67, label %72

67:                                               ; preds = %62, %59
  %68 = load i64, ptr %11, align 8
  %69 = load i64, ptr %12, align 8
  %70 = mul i64 %68, %69
  %71 = call noalias ptr @g_malloc0(i64 noundef %70) #16
  store ptr %71, ptr %13, align 8
  br label %76

72:                                               ; preds = %62, %56
  %73 = load i64, ptr %11, align 8
  %74 = load i64, ptr %12, align 8
  %75 = call noalias ptr @g_malloc0_n(i64 noundef %73, i64 noundef %74) #17
  store ptr %75, ptr %13, align 8
  br label %76

76:                                               ; preds = %72, %67
  br label %77

77:                                               ; preds = %76, %53
  %78 = load ptr, ptr %13, align 8
  store ptr %78, ptr %14, align 8
  call void @llvm.lifetime.end.p0(i64 8, ptr %13) #13
  call void @llvm.lifetime.end.p0(i64 8, ptr %12) #13
  call void @llvm.lifetime.end.p0(i64 8, ptr %11) #13
  %79 = load ptr, ptr %14, align 8
  %80 = load ptr, ptr %5, align 8
  %81 = getelementptr inbounds nuw %struct._stat_tap_table, ptr %80, i32 0, i32 4
  %82 = load ptr, ptr %81, align 8
  %83 = load i32, ptr %10, align 4
  %84 = zext i32 %83 to i64
  %85 = getelementptr ptr, ptr %82, i64 %84
  store ptr %79, ptr %85, align 8
  br label %86

86:                                               ; preds = %77
  %87 = load i32, ptr %10, align 4
  %88 = add i32 %87, 1
  store i32 %88, ptr %10, align 4
  br label %40, !llvm.loop !10

89:                                               ; preds = %40
  call void @llvm.lifetime.end.p0(i64 4, ptr %10) #13
  call void @llvm.lifetime.end.p0(i64 4, ptr %9) #13
  br label %90

90:                                               ; preds = %89, %4
  %91 = load ptr, ptr %5, align 8
  %92 = getelementptr inbounds nuw %struct._stat_tap_table, ptr %91, i32 0, i32 4
  %93 = load ptr, ptr %92, align 8
  %94 = load i32, ptr %6, align 4
  %95 = zext i32 %94 to i64
  %96 = getelementptr ptr, ptr %93, i64 %95
  %97 = load ptr, ptr %96, align 8
  %98 = load ptr, ptr %8, align 8
  %99 = load i32, ptr %7, align 4
  %100 = zext i32 %99 to i64
  %101 = mul i64 %100, 24
  %102 = call ptr @memcpy.inline(ptr noundef %97, ptr noundef %98, i64 noundef %101) #13
  ret void
}