; Function Attrs: null_pointer_is_valid sspstrong uwtable
define void @stat_tap_init_table_row(ptr noundef captures(none) %0, i32 noundef %1, i32 noundef %2, ptr noundef readonly captures(none) %3) local_unnamed_addr #0 {
  %5 = getelementptr inbounds nuw i8, ptr %0, i64 20
  %6 = load i32, ptr %5, align 4
  %.not = icmp ult i32 %1, %6
  br i1 %.not, label %.loopexit, label %7

7:                                                ; preds = %4
  %8 = add i32 %1, 1
  store i32 %8, ptr %5, align 4
  %9 = getelementptr inbounds nuw i8, ptr %0, i64 24
  %10 = load ptr, ptr %9, align 8
  %11 = zext i32 %8 to i64
  %12 = shl nuw nsw i64 %11, 3
  %13 = tail call ptr @g_realloc(ptr noundef %10, i64 noundef %12)
  store ptr %13, ptr %9, align 8
  %14 = load i32, ptr %5, align 4
  %15 = icmp ult i32 %6, %14
  br i1 %15, label %.lr.ph, label %.loopexit

.lr.ph:                                           ; preds = %7
  %16 = getelementptr inbounds nuw i8, ptr %0, i64 16
  %17 = zext i32 %6 to i64
  br label %18

18:                                               ; preds = %18, %.lr.ph
  %indvars.iv = phi i64 [ %17, %.lr.ph ], [ %indvars.iv.next, %18 ]
  %19 = load i32, ptr %16, align 8
  %20 = zext i32 %19 to i64
  %21 = tail call noalias ptr @g_malloc0_n(i64 noundef %20, i64 noundef 24) #14
  %22 = load ptr, ptr %9, align 8
  %23 = getelementptr ptr, ptr %22, i64 %indvars.iv
  store ptr %21, ptr %23, align 8
  %indvars.iv.next = add nuw nsw i64 %indvars.iv, 1
  %24 = load i32, ptr %5, align 4
  %25 = zext i32 %24 to i64
  %26 = icmp samesign ult i64 %indvars.iv.next, %25
  br i1 %26, label %18, label %.loopexit, !llvm.loop !10

.loopexit:                                        ; preds = %18, %7, %4
  %27 = getelementptr inbounds nuw i8, ptr %0, i64 24
  %28 = load ptr, ptr %27, align 8
  %29 = zext i32 %1 to i64
  %30 = getelementptr ptr, ptr %28, i64 %29
  %31 = load ptr, ptr %30, align 8
  %32 = zext i32 %2 to i64
  %33 = mul nuw nsw i64 %32, 24
  tail call void @llvm.memcpy.p0.p0.i64(ptr noundef align 1 %31, ptr noundef align 1 %3, i64 noundef range(i64 0, 103079215081) %33, i1 noundef false) #12
  ret void
}